; Function Attrs: nounwind uwtable
define internal range(i32 -2147483648, 1) i32 @xbm_encode_frame(ptr noundef %0, ptr noundef %1, ptr noundef readonly captures(none) %2, ptr noundef writeonly captures(none) %3) #0 {
  %5 = getelementptr inbounds nuw i8, ptr %0, i64 112
  %6 = load i32, ptr %5, align 8, !tbaa !4
  %7 = add nsw i32 %6, 7
  %8 = sdiv i32 %7, 8
  %9 = getelementptr inbounds nuw i8, ptr %0, i64 116
  %10 = load i32, ptr %9, align 4, !tbaa !27
  %11 = mul nsw i32 %8, %10
  %12 = icmp sgt i32 %6, 672
  br i1 %12, label %13, label %16

13:                                               ; preds = %4
  %14 = add nsw i32 %11, 83
  %15 = sdiv i32 %14, 84
  br label %16

16:                                               ; preds = %13, %4
  %.059 = phi i32 [ 84, %13 ], [ %8, %4 ]
  %.058 = phi i32 [ %15, %13 ], [ %10, %4 ]
  %17 = mul nsw i32 %.059, 6
  %18 = or disjoint i32 %17, 1
  %19 = mul nsw i32 %18, %.058
  %20 = add nsw i32 %19, 106
  %21 = sext i32 %20 to i64
  %22 = tail call i32 @ff_alloc_packet(ptr noundef nonnull %0, ptr noundef %1, i64 noundef %21) #5
  %23 = icmp slt i32 %22, 0
  br i1 %23, label %83, label %24

24:                                               ; preds = %16
  %25 = getelementptr inbounds nuw i8, ptr %1, i64 24
  %26 = load ptr, ptr %25, align 8, !tbaa !28
  %27 = load ptr, ptr %2, align 8, !tbaa !30
  %28 = load i32, ptr %5, align 8, !tbaa !4
  %29 = tail call i32 (ptr, i64, ptr, ...) @snprintf(ptr noundef nonnull dereferenceable(1) %26, i64 noundef 32, ptr noundef nonnull @.str.2, i32 noundef %28) #5
  %30 = sext i32 %29 to i64
  %31 = getelementptr inbounds i8, ptr %26, i64 %30
  %32 = load i32, ptr %9, align 4, !tbaa !27
  %33 = tail call i32 (ptr, i64, ptr, ...) @snprintf(ptr noundef nonnull dereferenceable(1) %31, i64 noundef 33, ptr noundef nonnull @.str.3, i32 noundef %32) #5
  %34 = sext i32 %33 to i64
  %35 = getelementptr inbounds i8, ptr %31, i64 %34
  tail call void @llvm.memcpy.p0.p0.i64(ptr noundef nonnull align 1 dereferenceable(39) %35, ptr noundef nonnull align 1 dereferenceable(39) @.str.4, i64 39, i1 false)
  %36 = getelementptr inbounds nuw i8, ptr %35, i64 38
  %37 = load i32, ptr %9, align 4, !tbaa !27
  %38 = icmp sgt i32 %37, 0
  br i1 %38, label %.preheader.lr.ph, label %._crit_edge

.preheader.lr.ph:                                 ; preds = %24
  %39 = icmp sgt i32 %6, 0
  %40 = getelementptr inbounds nuw i8, ptr %2, i64 64
  br i1 %39, label %.preheader.us.preheader, label %._crit_edge

.preheader.us.preheader:                          ; preds = %.preheader.lr.ph
  %smax = tail call i32 @llvm.smax.i32(i32 %8, i32 1)
  br label %.preheader.us

.preheader.us:                                    ; preds = %.preheader.us.preheader, %..loopexit_crit_edge.us
  %.093.us = phi ptr [ %.2.us, %..loopexit_crit_edge.us ], [ %36, %.preheader.us.preheader ]
  %.05592.us = phi ptr [ %72, %..loopexit_crit_edge.us ], [ %27, %.preheader.us.preheader ]
  %.06191.us = phi i32 [ %73, %..loopexit_crit_edge.us ], [ 0, %.preheader.us.preheader ]
  %.06390.us = phi i32 [ %59, %..loopexit_crit_edge.us ], [ %11, %.preheader.us.preheader ]
  %.06689.us = phi i32 [ %.16778.us, %..loopexit_crit_edge.us ], [ %.059, %.preheader.us.preheader ]
  %smin = tail call i32 @llvm.smin.i32(i32 %.06390.us, i32 1)
  %41 = sub i32 %.06390.us, %smin
  br label %42

42:                                               ; preds = %.preheader.us, %66
  %.185.us = phi ptr [ %.093.us, %.preheader.us ], [ %.3.us, %66 ]
  %.15684.us = phi ptr [ %.05592.us, %.preheader.us ], [ %58, %66 ]
  %.06283.us = phi i32 [ 0, %.preheader.us ], [ %67, %66 ]
  %.16482.us = phi i32 [ %.06390.us, %.preheader.us ], [ %59, %66 ]
  %.16781.us = phi i32 [ %.06689.us, %.preheader.us ], [ %.268.us, %66 ]
  store i8 32, ptr %.185.us, align 1, !tbaa !31
  %43 = getelementptr inbounds nuw i8, ptr %.185.us, i64 1
  store i8 48, ptr %43, align 1, !tbaa !31
  %44 = getelementptr inbounds nuw i8, ptr %.185.us, i64 2
  store i8 120, ptr %44, align 1, !tbaa !31
  %45 = load i8, ptr %.15684.us, align 1, !tbaa !31
  %46 = and i8 %45, 15
  %47 = zext nneg i8 %46 to i64
  %48 = getelementptr inbounds nuw [16 x i8], ptr @xbm_encode_frame.lut, i64 0, i64 %47
  %49 = load i8, ptr %48, align 1, !tbaa !31
  %50 = getelementptr inbounds nuw i8, ptr %.185.us, i64 3
  store i8 %49, ptr %50, align 1, !tbaa !31
  %51 = load i8, ptr %.15684.us, align 1, !tbaa !31
  %52 = lshr i8 %51, 4
  %53 = zext nneg i8 %52 to i64
  %54 = getelementptr inbounds nuw [16 x i8], ptr @xbm_encode_frame.lut, i64 0, i64 %53
  %55 = load i8, ptr %54, align 1, !tbaa !31
  %56 = getelementptr inbounds nuw i8, ptr %.185.us, i64 4
  store i8 %55, ptr %56, align 1, !tbaa !31
  %57 = getelementptr inbounds nuw i8, ptr %.185.us, i64 5
  %58 = getelementptr inbounds nuw i8, ptr %.15684.us, i64 1
  %59 = add nsw i32 %.16482.us, -1
  %exitcond = icmp eq i32 %.06283.us, %41
  %60 = getelementptr inbounds nuw i8, ptr %.185.us, i64 6
  br i1 %exitcond, label %68, label %61

61:                                               ; preds = %42
  store i8 44, ptr %57, align 1, !tbaa !31
  %62 = add nsw i32 %.16781.us, -1
  %63 = icmp slt i32 %.16781.us, 2
  br i1 %63, label %64, label %66

64:                                               ; preds = %61
  %65 = getelementptr inbounds nuw i8, ptr %.185.us, i64 7
  store i8 10, ptr %60, align 1, !tbaa !31
  br label %66

66:                                               ; preds = %64, %61
  %.268.us = phi i32 [ %.059, %64 ], [ %62, %61 ]
  %.3.us = phi ptr [ %65, %64 ], [ %60, %61 ]
  %67 = add nuw nsw i32 %.06283.us, 1
  %exitcond103.not = icmp eq i32 %67, %smax
  br i1 %exitcond103.not, label %..loopexit_crit_edge.us, label %42, !llvm.loop !32

68:                                               ; preds = %42
  store i8 10, ptr %57, align 1, !tbaa !31
  br label %..loopexit_crit_edge.us

..loopexit_crit_edge.us:                          ; preds = %66, %68
  %.16778.us = phi i32 [ %.16781.us, %68 ], [ %.268.us, %66 ]
  %.2.us = phi ptr [ %60, %68 ], [ %.3.us, %66 ]
  %69 = load i32, ptr %40, align 8, !tbaa !34
  %70 = sub nsw i32 %69, %8
  %71 = sext i32 %70 to i64
  %72 = getelementptr inbounds i8, ptr %58, i64 %71
  %73 = add nuw nsw i32 %.06191.us, 1
  %74 = load i32, ptr %9, align 4, !tbaa !27
  %75 = icmp slt i32 %73, %74
  br i1 %75, label %.preheader.us, label %._crit_edge, !llvm.loop !35

._crit_edge:                                      ; preds = %..loopexit_crit_edge.us, %.preheader.lr.ph, %24
  %.0.lcssa = phi ptr [ %36, %24 ], [ %36, %.preheader.lr.ph ], [ %.2.us, %..loopexit_crit_edge.us ]
  tail call void @llvm.memcpy.p0.p0.i64(ptr noundef nonnull align 1 dereferenceable(5) %.0.lcssa, ptr noundef nonnull align 1 dereferenceable(5) @.str.5, i64 5, i1 false)
  %76 = getelementptr inbounds nuw i8, ptr %.0.lcssa, i64 4
  %77 = load ptr, ptr %25, align 8, !tbaa !28
  %78 = ptrtoint ptr %76 to i64
  %79 = ptrtoint ptr %77 to i64
  %80 = sub i64 %78, %79
  %81 = trunc i64 %80 to i32
  %82 = getelementptr inbounds nuw i8, ptr %1, i64 32
  store i32 %81, ptr %82, align 8, !tbaa !36
  store i32 1, ptr %3, align 4, !tbaa !34
  br label %83

83:                                               ; preds = %16, %._crit_edge
  %.060 = phi i32 [ 0, %._crit_edge ], [ %22, %16 ]
  ret i32 %.060
}